; Function Attrs: mustprogress noreturn nounwind uwtable
define hidden void @_ZN6hermes12hermes_fatalEN4llvh9StringRefESt10error_code(ptr %prefix.coerce0, i64 %prefix.coerce1, i32 %code.coerce0, ptr %code.coerce1) local_unnamed_addr #5 {
entry:
  %prefix = alloca %"class.llvh::StringRef", align 8
  %ref.tmp = alloca %"class.std::__cxx11::basic_string", align 8
  %ref.tmp1 = alloca %"class.llvh::Twine", align 8
  %ref.tmp2 = alloca %"class.llvh::Twine", align 8
  %ref.tmp3 = alloca %"class.llvh::Twine", align 8
  %ref.tmp4 = alloca %"class.llvh::Twine", align 8
  %ref.tmp5 = alloca %"class.llvh::Twine", align 8
  %ref.tmp6 = alloca %"class.std::__cxx11::basic_string", align 8
  store ptr %prefix.coerce0, ptr %prefix, align 8
  %0 = getelementptr inbounds i8, ptr %prefix, i64 8
  store i64 %prefix.coerce1, ptr %0, align 8
  %LHSKind.i = getelementptr inbounds i8, ptr %ref.tmp3, i64 16
  store i8 5, ptr %LHSKind.i, align 8
  %RHSKind.i = getelementptr inbounds i8, ptr %ref.tmp3, i64 17
  store i8 1, ptr %RHSKind.i, align 1
  store ptr %prefix, ptr %ref.tmp3, align 8
  %LHSKind.i2 = getelementptr inbounds i8, ptr %ref.tmp4, i64 16
  %RHSKind.i3 = getelementptr inbounds i8, ptr %ref.tmp4, i64 17
  store i8 1, ptr %RHSKind.i3, align 1
  store ptr @.str.4, ptr %ref.tmp4, align 8
  store i8 3, ptr %LHSKind.i2, align 8
  call void @_ZN4llvhplERKNS_5TwineES2_(ptr nonnull sret(%"class.llvh::Twine") align 8 %ref.tmp2, ptr noundef nonnull align 8 dereferenceable(18) %ref.tmp3, ptr noundef nonnull align 8 dereferenceable(18) %ref.tmp4)
  call void @_ZN6hermes24convert_error_to_messageB5cxx11ESt10error_code(ptr nonnull sret(%"class.std::__cxx11::basic_string") align 8 %ref.tmp6, i32 %code.coerce0, ptr %code.coerce1)
  %LHSKind.i4 = getelementptr inbounds i8, ptr %ref.tmp5, i64 16
  store i8 4, ptr %LHSKind.i4, align 8
  %RHSKind.i5 = getelementptr inbounds i8, ptr %ref.tmp5, i64 17
  store i8 1, ptr %RHSKind.i5, align 1
  store ptr %ref.tmp6, ptr %ref.tmp5, align 8
  call void @_ZN4llvhplERKNS_5TwineES2_(ptr nonnull sret(%"class.llvh::Twine") align 8 %ref.tmp1, ptr noundef nonnull align 8 dereferenceable(18) %ref.tmp2, ptr noundef nonnull align 8 dereferenceable(18) %ref.tmp5)
  call void @_ZNK4llvh5Twine3strB5cxx11Ev(ptr nonnull sret(%"class.std::__cxx11::basic_string") align 8 %ref.tmp, ptr noundef nonnull align 8 dereferenceable(18) %ref.tmp1) #11
  call void @_ZN4llvh18report_fatal_errorERKNSt7__cxx1112basic_stringIcSt11char_traitsIcESaIcEEEb(ptr noundef nonnull align 8 dereferenceable(32) %ref.tmp, i1 noundef zeroext true) #12
  unreachable
}